; Function Attrs: nounwind uwtable
define noalias nonnull ptr @l_Lean_Meta_SplitIf_mkDischarge_x3f(i8 noundef zeroext %0, ptr noundef %1, ptr readnone captures(none) %2, ptr readnone captures(none) %3, ptr readnone captures(none) %4, ptr noundef %5) local_unnamed_addr #1 {
  %7 = getelementptr inbounds nuw i8, ptr %1, i64 24
  %8 = load ptr, ptr %7, align 8, !tbaa !10
  %9 = ptrtoint ptr %8 to i64
  %10 = and i64 %9, 1
  %.not = icmp eq i64 %10, 0
  br i1 %.not, label %11, label %lean_inc.exit

11:                                               ; preds = %6
  %.val.i = load i32, ptr %8, align 4, !tbaa !4
  %12 = icmp sgt i32 %.val.i, 0
  br i1 %12, label %13, label %15, !prof !9

13:                                               ; preds = %11
  %14 = add nuw i32 %.val.i, 1
  store i32 %14, ptr %8, align 4, !tbaa !4
  br label %lean_inc.exit

15:                                               ; preds = %11
  %.not.i13 = icmp eq i32 %.val.i, 0
  br i1 %.not.i13, label %lean_inc.exit, label %16

16:                                               ; preds = %15
  tail call void @lean_inc_ref_cold(ptr noundef nonnull %8) #7
  br label %lean_inc.exit

lean_inc.exit:                                    ; preds = %16, %15, %13, %6
  %17 = ptrtoint ptr %1 to i64
  %18 = and i64 %17, 1
  %.not14 = icmp eq i64 %18, 0
  br i1 %.not14, label %19, label %lean_dec.exit

19:                                               ; preds = %lean_inc.exit
  %20 = load i32, ptr %1, align 4, !tbaa !4
  %21 = icmp sgt i32 %20, 1
  br i1 %21, label %22, label %24, !prof !9

22:                                               ; preds = %19
  %23 = add nsw i32 %20, -1
  store i32 %23, ptr %1, align 4, !tbaa !4
  br label %lean_dec.exit

24:                                               ; preds = %19
  %.not.i = icmp eq i32 %20, 0
  br i1 %.not.i, label %lean_dec.exit, label %25

25:                                               ; preds = %24
  tail call void @lean_dec_ref_cold(ptr noundef nonnull %1) #7
  br label %lean_dec.exit

lean_dec.exit:                                    ; preds = %25, %24, %22, %lean_inc.exit
  %26 = tail call ptr @lean_local_ctx_num_indices(ptr noundef %8) #7
  tail call void @lean_inc_heartbeat() #7
  %27 = tail call noalias ptr @mi_malloc_small(i64 noundef 40) #7
  %28 = icmp eq ptr %27, null
  br i1 %28, label %29, label %lean_alloc_closure.exit

29:                                               ; preds = %lean_dec.exit
  tail call void @lean_internal_panic_out_of_memory() #8
  unreachable

lean_alloc_closure.exit:                          ; preds = %lean_dec.exit
  %30 = zext i8 %0 to i64
  %31 = shl nuw nsw i64 %30, 1
  %32 = or disjoint i64 %31, 1
  %33 = inttoptr i64 %32 to ptr
  %34 = getelementptr inbounds nuw i8, ptr %27, i64 4
  store i32 1, ptr %27, align 4, !tbaa !4
  store i32 -184549336, ptr %34, align 4
  %35 = getelementptr inbounds nuw i8, ptr %27, i64 8
  store ptr @l_Lean_Meta_SplitIf_mkDischarge_x3f___elambda__1___boxed, ptr %35, align 8, !tbaa !10
  %36 = getelementptr inbounds nuw i8, ptr %27, i64 16
  store i16 11, ptr %36, align 8, !tbaa !12
  %37 = getelementptr inbounds nuw i8, ptr %27, i64 18
  store i16 2, ptr %37, align 2, !tbaa !12
  %38 = getelementptr inbounds nuw i8, ptr %27, i64 24
  store ptr %33, ptr %38, align 8, !tbaa !10
  %39 = getelementptr inbounds nuw i8, ptr %27, i64 32
  store ptr %26, ptr %39, align 8, !tbaa !10
  tail call void @lean_inc_heartbeat() #7
  %40 = tail call noalias ptr @mi_malloc_small(i64 noundef 24) #7
  %41 = icmp eq ptr %40, null
  br i1 %41, label %42, label %lean_alloc_ctor.exit

42:                                               ; preds = %lean_alloc_closure.exit
  tail call void @lean_internal_panic_out_of_memory() #8
  unreachable

lean_alloc_ctor.exit:                             ; preds = %lean_alloc_closure.exit
  %43 = getelementptr inbounds nuw i8, ptr %40, i64 4
  store i32 1, ptr %40, align 4, !tbaa !4
  store i32 131096, ptr %43, align 4
  %44 = getelementptr inbounds nuw i8, ptr %40, i64 8
  store ptr %27, ptr %44, align 8, !tbaa !10
  %45 = getelementptr inbounds nuw i8, ptr %40, i64 16
  store ptr %5, ptr %45, align 8, !tbaa !10
  ret ptr %40
}